target datalayout = "e-m:e-p270:32:32-p271:32:32-p272:64:64-i64:64-i128:128-f80:128-n8:16:32:64-S128"
target triple = "x86_64-pc-linux-gnu"

%class.OopHandle = type { ptr }
%class.MemoryUsage = type { i64, i64, i64, i64 }
%class.MemoryPool = type <{ ptr, ptr, i32, [4 x i8], i64, i64, i8, [7 x i8], [5 x ptr], i32, [4 x i8], %class.MemoryUsage, %class.MemoryUsage, ptr, ptr, ptr, ptr, %class.OopHandle, i8, [7 x i8] }>

@_ZN5XHeap5_heapE = external global ptr, align 8

; Function Attrs: mustprogress nounwind uwtable
define linkonce_odr hidden void @_ZN11MemoryUsageC2Emmmm(ptr noundef nonnull align 8 dereferenceable(32) %0, i64 noundef %1, i64 noundef %2, i64 noundef %3, i64 noundef %4) unnamed_addr #1 comdat align 2 {
  %6 = alloca ptr, align 8
  %7 = alloca i64, align 8
  %8 = alloca i64, align 8
  %9 = alloca i64, align 8
  %10 = alloca i64, align 8
  store ptr %0, ptr %6, align 8
  store i64 %1, ptr %7, align 8
  store i64 %2, ptr %8, align 8
  store i64 %3, ptr %9, align 8
  store i64 %4, ptr %10, align 8
  %11 = load ptr, ptr %6, align 8
  %12 = getelementptr inbounds %class.MemoryUsage, ptr %11, i32 0, i32 0
  %13 = load i64, ptr %7, align 8
  store i64 %13, ptr %12, align 8
  %14 = getelementptr inbounds %class.MemoryUsage, ptr %11, i32 0, i32 1
  %15 = load i64, ptr %8, align 8
  store i64 %15, ptr %14, align 8
  %16 = getelementptr inbounds %class.MemoryUsage, ptr %11, i32 0, i32 2
  %17 = load i64, ptr %9, align 8
  store i64 %17, ptr %16, align 8
  %18 = getelementptr inbounds %class.MemoryUsage, ptr %11, i32 0, i32 3
  %19 = load i64, ptr %10, align 8
  store i64 %19, ptr %18, align 8
  ret void
}

; Function Attrs: mustprogress nounwind uwtable
define linkonce_odr hidden noundef i64 @_ZNK10MemoryPool12initial_sizeEv(ptr noundef nonnull align 8 dereferenceable(201) %0) #1 comdat align 2 {
  %2 = alloca ptr, align 8
  store ptr %0, ptr %2, align 8
  %3 = load ptr, ptr %2, align 8
  %4 = getelementptr inbounds %class.MemoryPool, ptr %3, i32 0, i32 4
  %5 = load i64, ptr %4, align 8
  ret i64 %5
}

; Function Attrs: mustprogress nounwind uwtable
define linkonce_odr hidden noundef i64 @_Z4MIN2ImET_S0_S0_(i64 noundef %0, i64 noundef %1) #1 comdat {
  %3 = alloca i64, align 8
  %4 = alloca i64, align 8
  store i64 %0, ptr %3, align 8
  store i64 %1, ptr %4, align 8
  %5 = load i64, ptr %3, align 8
  %6 = load i64, ptr %4, align 8
  %7 = icmp ult i64 %5, %6
  br i1 %7, label %8, label %10

8:                                                ; preds = %2
  %9 = load i64, ptr %3, align 8
  br label %12

10:                                               ; preds = %2
  %11 = load i64, ptr %4, align 8
  br label %12

12:                                               ; preds = %10, %8
  %13 = phi i64 [ %9, %8 ], [ %11, %10 ]
  ret i64 %13
}

; Function Attrs: mustprogress nounwind uwtable
define linkonce_odr hidden noundef ptr @_ZN5XHeap4heapEv() #1 comdat align 2 {
  %1 = load ptr, ptr @_ZN5XHeap5_heapE, align 8
  ret ptr %1
}

; Function Attrs: mustprogress nounwind uwtable
define hidden void @_ZN25XServiceabilityMemoryPool16get_memory_usageEv(ptr dead_on_unwind noalias writable sret(%class.MemoryUsage) align 8 %0, ptr noundef nonnull align 8 dereferenceable(201) %1) unnamed_addr #1 align 2 {
  %3 = alloca ptr, align 8
  %4 = alloca i64, align 8
  %5 = alloca i64, align 8
  store ptr %1, ptr %3, align 8
  %6 = load ptr, ptr %3, align 8
  %7 = call noundef ptr @_ZN5XHeap4heapEv()
  %8 = call noundef i64 @_ZNK5XHeap8capacityEv(ptr noundef nonnull align 64 dereferenceable(4088) %7)
  store i64 %8, ptr %4, align 8
  %9 = call noundef ptr @_ZN5XHeap4heapEv()
  %10 = call noundef i64 @_ZNK5XHeap4usedEv(ptr noundef nonnull align 64 dereferenceable(4088) %9)
  %11 = load i64, ptr %4, align 8
  %12 = call noundef i64 @_Z4MIN2ImET_S0_S0_(i64 noundef %10, i64 noundef %11)
  store i64 %12, ptr %5, align 8
  %13 = call noundef i64 @_ZNK10MemoryPool12initial_sizeEv(ptr noundef nonnull align 8 dereferenceable(201) %6)
  %14 = load i64, ptr %5, align 8
  %15 = load i64, ptr %4, align 8
  %16 = load ptr, ptr %6, align 8
  %17 = getelementptr inbounds ptr, ptr %16, i64 2
  %18 = load ptr, ptr %17, align 8
  %19 = call noundef i64 %18(ptr noundef nonnull align 8 dereferenceable(201) %6)
  call void @_ZN11MemoryUsageC2Emmmm(ptr noundef nonnull align 8 dereferenceable(32) %0, i64 noundef %13, i64 noundef %14, i64 noundef %15, i64 noundef %19)
  ret void
}