; Function Attrs: mustprogress nounwind uwtable
define hidden void @_ZN25XServiceabilityMemoryPool16get_memory_usageEv(ptr dead_on_unwind noalias nocapture writable writeonly sret(%class.MemoryUsage) align 8 %0, ptr noundef nonnull align 8 dereferenceable(201) %1) unnamed_addr #0 align 2 {
  %3 = load ptr, ptr @_ZN5XHeap5_heapE, align 8
  %4 = tail call noundef i64 @_ZNK5XHeap8capacityEv(ptr noundef nonnull align 64 dereferenceable(4088) %3) #8
  %5 = load ptr, ptr @_ZN5XHeap5_heapE, align 8
  %6 = tail call noundef i64 @_ZNK5XHeap4usedEv(ptr noundef nonnull align 64 dereferenceable(4088) %5) #8
  %7 = tail call noundef i64 @llvm.umin.i64(i64 %6, i64 %4)
  %8 = getelementptr inbounds i8, ptr %1, i64 24
  %9 = load i64, ptr %8, align 8
  %10 = load ptr, ptr %1, align 8
  %11 = getelementptr inbounds i8, ptr %10, i64 16
  %12 = load ptr, ptr %11, align 8
  %13 = tail call noundef i64 %12(ptr noundef nonnull align 8 dereferenceable(201) %1) #8
  store i64 %9, ptr %0, align 8
  %14 = getelementptr inbounds i8, ptr %0, i64 8
  store i64 %7, ptr %14, align 8
  %15 = getelementptr inbounds i8, ptr %0, i64 16
  store i64 %4, ptr %15, align 8
  %16 = getelementptr inbounds i8, ptr %0, i64 24
  store i64 %13, ptr %16, align 8
  ret void
}